target datalayout = "e-m:e-p270:32:32-p271:32:32-p272:64:64-i64:64-i128:128-f80:128-n8:16:32:64-S128"
target triple = "x86_64-pc-linux-gnu"

%struct._object = type { %union.anon, ptr }
%union.anon = type { i64 }
%struct.Blake2Object = type { %struct._object, %union.anon.0, i32, i8, %struct.PyMutex }
%union.anon.0 = type { ptr }
%struct.PyMutex = type { i8 }

; Function Attrs: nounwind uwtable
define internal void @update(ptr noundef %0, ptr noundef %1, i64 noundef %2) #0 {
  %4 = alloca ptr, align 8
  %5 = alloca ptr, align 8
  %6 = alloca i64, align 8
  store ptr %0, ptr %4, align 8, !tbaa !3
  store ptr %1, ptr %5, align 8, !tbaa !70
  store i64 %2, ptr %6, align 8, !tbaa !51
  %7 = load ptr, ptr %4, align 8, !tbaa !3
  %8 = getelementptr inbounds nuw %struct.Blake2Object, ptr %7, i32 0, i32 2
  %9 = load i32, ptr %8, align 8, !tbaa !47
  switch i32 %9, label %106 [
    i32 3, label %10
    i32 2, label %34
    i32 1, label %58
    i32 0, label %82
  ]

10:                                               ; preds = %3
  br label %11

11:                                               ; preds = %10
  br label %12

12:                                               ; preds = %15, %11
  %13 = load i64, ptr %6, align 8, !tbaa !51
  %14 = icmp sgt i64 %13, 4294967295
  br i1 %14, label %15, label %25

15:                                               ; preds = %12
  %16 = load ptr, ptr %4, align 8, !tbaa !3
  %17 = getelementptr inbounds nuw %struct.Blake2Object, ptr %16, i32 0, i32 1
  %18 = load ptr, ptr %17, align 8, !tbaa !43
  %19 = load ptr, ptr %5, align 8, !tbaa !70
  %20 = call zeroext i8 @python_hashlib_Hacl_Hash_Blake2b_Simd256_update(ptr noundef %18, ptr noundef %19, i32 noundef -1)
  %21 = load i64, ptr %6, align 8, !tbaa !51
  %22 = sub i64 %21, 4294967295
  store i64 %22, ptr %6, align 8, !tbaa !51
  %23 = load ptr, ptr %5, align 8, !tbaa !70
  %24 = getelementptr i8, ptr %23, i64 4294967295
  store ptr %24, ptr %5, align 8, !tbaa !70
  br label %12, !llvm.loop !73

25:                                               ; preds = %12
  %26 = load ptr, ptr %4, align 8, !tbaa !3
  %27 = getelementptr inbounds nuw %struct.Blake2Object, ptr %26, i32 0, i32 1
  %28 = load ptr, ptr %27, align 8, !tbaa !43
  %29 = load ptr, ptr %5, align 8, !tbaa !70
  %30 = load i64, ptr %6, align 8, !tbaa !51
  %31 = trunc i64 %30 to i32
  %32 = call zeroext i8 @python_hashlib_Hacl_Hash_Blake2b_Simd256_update(ptr noundef %28, ptr noundef %29, i32 noundef %31)
  br label %33

33:                                               ; preds = %25
  br label %107

34:                                               ; preds = %3
  br label %35

35:                                               ; preds = %34
  br label %36

36:                                               ; preds = %39, %35
  %37 = load i64, ptr %6, align 8, !tbaa !51
  %38 = icmp sgt i64 %37, 4294967295
  br i1 %38, label %39, label %49

39:                                               ; preds = %36
  %40 = load ptr, ptr %4, align 8, !tbaa !3
  %41 = getelementptr inbounds nuw %struct.Blake2Object, ptr %40, i32 0, i32 1
  %42 = load ptr, ptr %41, align 8, !tbaa !43
  %43 = load ptr, ptr %5, align 8, !tbaa !70
  %44 = call zeroext i8 @python_hashlib_Hacl_Hash_Blake2s_Simd128_update(ptr noundef %42, ptr noundef %43, i32 noundef -1)
  %45 = load i64, ptr %6, align 8, !tbaa !51
  %46 = sub i64 %45, 4294967295
  store i64 %46, ptr %6, align 8, !tbaa !51
  %47 = load ptr, ptr %5, align 8, !tbaa !70
  %48 = getelementptr i8, ptr %47, i64 4294967295
  store ptr %48, ptr %5, align 8, !tbaa !70
  br label %36, !llvm.loop !75

49:                                               ; preds = %36
  %50 = load ptr, ptr %4, align 8, !tbaa !3
  %51 = getelementptr inbounds nuw %struct.Blake2Object, ptr %50, i32 0, i32 1
  %52 = load ptr, ptr %51, align 8, !tbaa !43
  %53 = load ptr, ptr %5, align 8, !tbaa !70
  %54 = load i64, ptr %6, align 8, !tbaa !51
  %55 = trunc i64 %54 to i32
  %56 = call zeroext i8 @python_hashlib_Hacl_Hash_Blake2s_Simd128_update(ptr noundef %52, ptr noundef %53, i32 noundef %55)
  br label %57

57:                                               ; preds = %49
  br label %107

58:                                               ; preds = %3
  br label %59

59:                                               ; preds = %58
  br label %60

60:                                               ; preds = %63, %59
  %61 = load i64, ptr %6, align 8, !tbaa !51
  %62 = icmp sgt i64 %61, 4294967295
  br i1 %62, label %63, label %73

63:                                               ; preds = %60
  %64 = load ptr, ptr %4, align 8, !tbaa !3
  %65 = getelementptr inbounds nuw %struct.Blake2Object, ptr %64, i32 0, i32 1
  %66 = load ptr, ptr %65, align 8, !tbaa !43
  %67 = load ptr, ptr %5, align 8, !tbaa !70
  %68 = call zeroext i8 @python_hashlib_Hacl_Hash_Blake2b_update(ptr noundef %66, ptr noundef %67, i32 noundef -1)
  %69 = load i64, ptr %6, align 8, !tbaa !51
  %70 = sub i64 %69, 4294967295
  store i64 %70, ptr %6, align 8, !tbaa !51
  %71 = load ptr, ptr %5, align 8, !tbaa !70
  %72 = getelementptr i8, ptr %71, i64 4294967295
  store ptr %72, ptr %5, align 8, !tbaa !70
  br label %60, !llvm.loop !76

73:                                               ; preds = %60
  %74 = load ptr, ptr %4, align 8, !tbaa !3
  %75 = getelementptr inbounds nuw %struct.Blake2Object, ptr %74, i32 0, i32 1
  %76 = load ptr, ptr %75, align 8, !tbaa !43
  %77 = load ptr, ptr %5, align 8, !tbaa !70
  %78 = load i64, ptr %6, align 8, !tbaa !51
  %79 = trunc i64 %78 to i32
  %80 = call zeroext i8 @python_hashlib_Hacl_Hash_Blake2b_update(ptr noundef %76, ptr noundef %77, i32 noundef %79)
  br label %81

81:                                               ; preds = %73
  br label %107

82:                                               ; preds = %3
  br label %83

83:                                               ; preds = %82
  br label %84

84:                                               ; preds = %87, %83
  %85 = load i64, ptr %6, align 8, !tbaa !51
  %86 = icmp sgt i64 %85, 4294967295
  br i1 %86, label %87, label %97

87:                                               ; preds = %84
  %88 = load ptr, ptr %4, align 8, !tbaa !3
  %89 = getelementptr inbounds nuw %struct.Blake2Object, ptr %88, i32 0, i32 1
  %90 = load ptr, ptr %89, align 8, !tbaa !43
  %91 = load ptr, ptr %5, align 8, !tbaa !70
  %92 = call zeroext i8 @python_hashlib_Hacl_Hash_Blake2s_update(ptr noundef %90, ptr noundef %91, i32 noundef -1)
  %93 = load i64, ptr %6, align 8, !tbaa !51
  %94 = sub i64 %93, 4294967295
  store i64 %94, ptr %6, align 8, !tbaa !51
  %95 = load ptr, ptr %5, align 8, !tbaa !70
  %96 = getelementptr i8, ptr %95, i64 4294967295
  store ptr %96, ptr %5, align 8, !tbaa !70
  br label %84, !llvm.loop !77

97:                                               ; preds = %84
  %98 = load ptr, ptr %4, align 8, !tbaa !3
  %99 = getelementptr inbounds nuw %struct.Blake2Object, ptr %98, i32 0, i32 1
  %100 = load ptr, ptr %99, align 8, !tbaa !43
  %101 = load ptr, ptr %5, align 8, !tbaa !70
  %102 = load i64, ptr %6, align 8, !tbaa !51
  %103 = trunc i64 %102 to i32
  %104 = call zeroext i8 @python_hashlib_Hacl_Hash_Blake2s_update(ptr noundef %100, ptr noundef %101, i32 noundef %103)
  br label %105

105:                                              ; preds = %97
  br label %107

106:                                              ; preds = %3
  unreachable

107:                                              ; preds = %105, %81, %57, %33
  ret void
}