; Function Attrs: nounwind uwtable
define internal fastcc void @update(ptr noundef readonly captures(none) %0, ptr noundef %1, i64 noundef %2) unnamed_addr #2 {
  %4 = getelementptr inbounds nuw i8, ptr %0, i64 24
  %5 = load i32, ptr %4, align 8, !tbaa !42
  %6 = icmp sgt i64 %2, 4294967295
  switch i32 %5, label %51 [
    i32 3, label %.preheader
    i32 2, label %.preheader36
    i32 1, label %.preheader37
    i32 0, label %.preheader38
  ]

.preheader38:                                     ; preds = %3
  br i1 %6, label %.lr.ph, label %._crit_edge

.lr.ph:                                           ; preds = %.preheader38
  %7 = getelementptr inbounds nuw i8, ptr %0, i64 16
  br label %41

.preheader37:                                     ; preds = %3
  br i1 %6, label %.lr.ph44, label %._crit_edge45

.lr.ph44:                                         ; preds = %.preheader37
  %8 = getelementptr inbounds nuw i8, ptr %0, i64 16
  br label %31

.preheader36:                                     ; preds = %3
  br i1 %6, label %.lr.ph50, label %._crit_edge51

.lr.ph50:                                         ; preds = %.preheader36
  %9 = getelementptr inbounds nuw i8, ptr %0, i64 16
  br label %21

.preheader:                                       ; preds = %3
  br i1 %6, label %.lr.ph56, label %._crit_edge57

.lr.ph56:                                         ; preds = %.preheader
  %10 = getelementptr inbounds nuw i8, ptr %0, i64 16
  br label %11

11:                                               ; preds = %.lr.ph56, %11
  %.055 = phi i64 [ %2, %.lr.ph56 ], [ %14, %11 ]
  %.03254 = phi ptr [ %1, %.lr.ph56 ], [ %15, %11 ]
  %12 = load ptr, ptr %10, align 8, !tbaa !31
  %13 = tail call zeroext i8 @python_hashlib_Hacl_Hash_Blake2b_Simd256_update(ptr noundef %12, ptr noundef %.03254, i32 noundef -1) #9
  %14 = add nsw i64 %.055, -4294967295
  %15 = getelementptr i8, ptr %.03254, i64 4294967295
  %16 = icmp samesign ugt i64 %.055, 8589934590
  br i1 %16, label %11, label %._crit_edge57, !llvm.loop !64

._crit_edge57:                                    ; preds = %11, %.preheader
  %.032.lcssa = phi ptr [ %1, %.preheader ], [ %15, %11 ]
  %.0.lcssa = phi i64 [ %2, %.preheader ], [ %14, %11 ]
  %17 = getelementptr inbounds nuw i8, ptr %0, i64 16
  %18 = load ptr, ptr %17, align 8, !tbaa !31
  %19 = trunc i64 %.0.lcssa to i32
  %20 = tail call zeroext i8 @python_hashlib_Hacl_Hash_Blake2b_Simd256_update(ptr noundef %18, ptr noundef %.032.lcssa, i32 noundef %19) #9
  br label %52

21:                                               ; preds = %.lr.ph50, %21
  %.149 = phi i64 [ %2, %.lr.ph50 ], [ %24, %21 ]
  %.13348 = phi ptr [ %1, %.lr.ph50 ], [ %25, %21 ]
  %22 = load ptr, ptr %9, align 8, !tbaa !31
  %23 = tail call zeroext i8 @python_hashlib_Hacl_Hash_Blake2s_Simd128_update(ptr noundef %22, ptr noundef %.13348, i32 noundef -1) #9
  %24 = add nsw i64 %.149, -4294967295
  %25 = getelementptr i8, ptr %.13348, i64 4294967295
  %26 = icmp samesign ugt i64 %.149, 8589934590
  br i1 %26, label %21, label %._crit_edge51, !llvm.loop !66

._crit_edge51:                                    ; preds = %21, %.preheader36
  %.133.lcssa = phi ptr [ %1, %.preheader36 ], [ %25, %21 ]
  %.1.lcssa = phi i64 [ %2, %.preheader36 ], [ %24, %21 ]
  %27 = getelementptr inbounds nuw i8, ptr %0, i64 16
  %28 = load ptr, ptr %27, align 8, !tbaa !31
  %29 = trunc i64 %.1.lcssa to i32
  %30 = tail call zeroext i8 @python_hashlib_Hacl_Hash_Blake2s_Simd128_update(ptr noundef %28, ptr noundef %.133.lcssa, i32 noundef %29) #9
  br label %52

31:                                               ; preds = %.lr.ph44, %31
  %.243 = phi i64 [ %2, %.lr.ph44 ], [ %34, %31 ]
  %.23442 = phi ptr [ %1, %.lr.ph44 ], [ %35, %31 ]
  %32 = load ptr, ptr %8, align 8, !tbaa !31
  %33 = tail call zeroext i8 @python_hashlib_Hacl_Hash_Blake2b_update(ptr noundef %32, ptr noundef %.23442, i32 noundef -1) #9
  %34 = add nsw i64 %.243, -4294967295
  %35 = getelementptr i8, ptr %.23442, i64 4294967295
  %36 = icmp samesign ugt i64 %.243, 8589934590
  br i1 %36, label %31, label %._crit_edge45, !llvm.loop !67

._crit_edge45:                                    ; preds = %31, %.preheader37
  %.234.lcssa = phi ptr [ %1, %.preheader37 ], [ %35, %31 ]
  %.2.lcssa = phi i64 [ %2, %.preheader37 ], [ %34, %31 ]
  %37 = getelementptr inbounds nuw i8, ptr %0, i64 16
  %38 = load ptr, ptr %37, align 8, !tbaa !31
  %39 = trunc i64 %.2.lcssa to i32
  %40 = tail call zeroext i8 @python_hashlib_Hacl_Hash_Blake2b_update(ptr noundef %38, ptr noundef %.234.lcssa, i32 noundef %39) #9
  br label %52

41:                                               ; preds = %.lr.ph, %41
  %.340 = phi i64 [ %2, %.lr.ph ], [ %44, %41 ]
  %.33539 = phi ptr [ %1, %.lr.ph ], [ %45, %41 ]
  %42 = load ptr, ptr %7, align 8, !tbaa !31
  %43 = tail call zeroext i8 @python_hashlib_Hacl_Hash_Blake2s_update(ptr noundef %42, ptr noundef %.33539, i32 noundef -1) #9
  %44 = add nsw i64 %.340, -4294967295
  %45 = getelementptr i8, ptr %.33539, i64 4294967295
  %46 = icmp samesign ugt i64 %.340, 8589934590
  br i1 %46, label %41, label %._crit_edge, !llvm.loop !68

._crit_edge:                                      ; preds = %41, %.preheader38
  %.335.lcssa = phi ptr [ %1, %.preheader38 ], [ %45, %41 ]
  %.3.lcssa = phi i64 [ %2, %.preheader38 ], [ %44, %41 ]
  %47 = getelementptr inbounds nuw i8, ptr %0, i64 16
  %48 = load ptr, ptr %47, align 8, !tbaa !31
  %49 = trunc i64 %.3.lcssa to i32
  %50 = tail call zeroext i8 @python_hashlib_Hacl_Hash_Blake2s_update(ptr noundef %48, ptr noundef %.335.lcssa, i32 noundef %49) #9
  br label %52

51:                                               ; preds = %3
  unreachable

52:                                               ; preds = %._crit_edge, %._crit_edge45, %._crit_edge51, %._crit_edge57
  ret void
}